Certificate:
    Data:
        Version: 3 (0x2)
        Serial Number: 1 (0x1)
    Signature Algorithm: ecdsa-with-SHA256
        Issuer: CN=My Test CA, ST=WH, C=CN/emailAddress=ldlkancolle@outlook.com, O=Hust
        Validity
            Not Before: Apr 17 10:20:33 2018 GMT
            Not After : Apr 17 10:20:33 2019 GMT
        Subject: CN=ldl, ST=WH, C=CN/emailAddress=ldlkancolle@outlook.com, O=ldlkancolle, OU=ldlkancolle
        Subject Public Key Info:
            Public Key Algorithm: id-ecPublicKey
                Public-Key: (256 bit)
                pub: 
                    04:8f:7f:8d:58:49:6c:5a:8e:dc:85:b7:f8:7b:3c:
                    9b:dc:aa:5e:b9:33:5c:e1:6c:ba:aa:e3:75:61:c6:
                    b7:a6:c6:e2:96:fe:e6:c7:90:0a:5c:48:b9:38:4c:
                    7c:3e:10:c1:aa:a0:61:f6:e8:a8:0c:8f:8d:f4:20:
                    d3:2d:ad:d2:fc
                ASN1 OID: secp256k1
        X509v3 extensions:
            X509v3 Basic Constraints: 
                CA:FALSE
    Signature Algorithm: ecdsa-with-SHA256
         30:46:02:21:00:a3:21:0c:c8:05:6a:e9:7d:9b:4d:58:d0:13:
         c9:f9:dd:7b:cf:2b:bf:ae:6b:af:a6:d3:10:d9:3b:cb:6b:4d:
         43:02:21:00:ce:89:d4:39:d9:b6:10:cc:45:b9:b9:ed:3a:3f:
         f5:db:6e:88:f6:3a:e0:e5:31:b9:da:ec:41:55:c0:20:e8:dc
-----BEGIN CERTIFICATE-----
MIIB3DCCAYGgAwIBAgIBATAKBggqhkjOPQQDAjBmMRMwEQYDVQQDDApNeSBUZXN0
IENBMQswCQYDVQQIDAJXSDELMAkGA1UEBhMCQ04xJjAkBgkqhkiG9w0BCQEWF2xk
bGthbmNvbGxlQG91dGxvb2suY29tMQ0wCwYDVQQKDARIdXN0MB4XDTE4MDQxNzEw
MjAzM1oXDTE5MDQxNzEwMjAzM1owfDEMMAoGA1UEAwwDbGRsMQswCQYDVQQIDAJX
SDELMAkGA1UEBhMCQ04xJjAkBgkqhkiG9w0BCQEWF2xkbGthbmNvbGxlQG91dGxv
b2suY29tMRQwEgYDVQQKDAtsZGxrYW5jb2xsZTEUMBIGA1UECwwLbGRsa2FuY29s
bGUwVjAQBgcqhkjOPQIBBgUrgQQACgNCAASPf41YSWxajtyFt/h7PJvcql65M1zh
bLqq43VhxremxuKW/ubHkApcSLk4THw+EMGqoGH26KgMj430INMtrdL8ow0wCzAJ
BgNVHRMEAjAAMAoGCCqGSM49BAMCA0kAMEYCIQCjIQzIBWrpfZtNWNATyfnde88r
v65rr6bTENk7y2tNQwIhAM6J1DnZthDMRbm57To/9dtuiPY64OUxudrsQVXAIOjc
-----END CERTIFICATE-----
