Certificate:
    Data:
        Version: 3 (0x2)
        Serial Number: 2 (0x2)
    Signature Algorithm: ecdsa-with-SHA256
        Issuer: CN=My Test CA, ST=WH, C=CN/emailAddress=ldlkancolle@outlook.com, O=Hust
        Validity
            Not Before: Apr 18 02:36:43 2018 GMT
            Not After : Apr 18 02:36:43 2019 GMT
        Subject: CN=ldliot, ST=WH, C=CN/emailAddress=ldlkancolle@outlook.com, O=ldlkancolle, OU=ldlkancolle
        Subject Public Key Info:
            Public Key Algorithm: id-ecPublicKey
                Public-Key: (256 bit)
                pub: 
                    04:0e:83:e7:00:96:b2:fc:3b:2f:91:ee:34:7e:d1:
                    8b:9f:98:60:53:ae:59:4a:7b:61:19:88:2f:9d:36:
                    d1:b9:cb:cd:ab:a6:24:cd:fb:8c:dc:ac:b9:fe:89:
                    03:b7:bf:2b:e8:cd:8c:91:a7:0d:42:fe:17:af:41:
                    60:e7:36:bb:a2
                ASN1 OID: secp256k1
        X509v3 extensions:
            X509v3 Basic Constraints: 
                CA:FALSE
    Signature Algorithm: ecdsa-with-SHA256
         30:45:02:20:72:7b:e8:a9:ca:2f:b5:60:89:8f:d5:56:eb:01:
         67:f3:ca:b4:c2:00:db:1c:c8:9c:bc:3a:e3:f9:2f:c3:00:53:
         02:21:00:c6:55:30:65:62:e1:16:8e:5e:35:b7:73:41:bf:8d:
         9f:8b:cb:c2:74:99:78:ab:a4:dc:a8:79:25:d3:91:04:7b
-----BEGIN CERTIFICATE-----
MIIB3jCCAYSgAwIBAgIBAjAKBggqhkjOPQQDAjBmMRMwEQYDVQQDDApNeSBUZXN0
IENBMQswCQYDVQQIDAJXSDELMAkGA1UEBhMCQ04xJjAkBgkqhkiG9w0BCQEWF2xk
bGthbmNvbGxlQG91dGxvb2suY29tMQ0wCwYDVQQKDARIdXN0MB4XDTE4MDQxODAy
MzY0M1oXDTE5MDQxODAyMzY0M1owfzEPMA0GA1UEAwwGbGRsaW90MQswCQYDVQQI
DAJXSDELMAkGA1UEBhMCQ04xJjAkBgkqhkiG9w0BCQEWF2xkbGthbmNvbGxlQG91
dGxvb2suY29tMRQwEgYDVQQKDAtsZGxrYW5jb2xsZTEUMBIGA1UECwwLbGRsa2Fu
Y29sbGUwVjAQBgcqhkjOPQIBBgUrgQQACgNCAAQOg+cAlrL8Oy+R7jR+0YufmGBT
rllKe2EZiC+dNtG5y82rpiTN+4zcrLn+iQO3vyvozYyRpw1C/hevQWDnNruiow0w
CzAJBgNVHRMEAjAAMAoGCCqGSM49BAMCA0gAMEUCIHJ76KnKL7VgiY/VVusBZ/PK
tMIA2xzInLw64/kvwwBTAiEAxlUwZWLhFo5eNbdzQb+Nn4vLwnSZeKuk3Kh5JdOR
BHs=
-----END CERTIFICATE-----
